target datalayout = "e-m:e-p270:32:32-p271:32:32-p272:64:64-i64:64-i128:128-f80:128-n8:16:32:64-S128"
target triple = "x86_64-pc-linux-gnu"

%"class.llvm::StringRef" = type { ptr, i64 }
%"class.llvm::SmallVectorBase.4" = type { ptr, i32, i32 }
%"class.llvm::opt::Option" = type { ptr, ptr }
%"class.llvm::opt::InputArgList" = type <{ %"class.llvm::opt::ArgList", %"class.llvm::SmallVector.73", %"class.std::__cxx11::list.78", i32, [4 x i8] }>
%"class.llvm::opt::ArgList" = type { ptr, %"class.llvm::SmallVector.65", %"class.llvm::DenseMap.70" }
%"class.llvm::SmallVector.65" = type { %"class.llvm::SmallVectorImpl.66", %"struct.llvm::SmallVectorStorage.69" }
%"class.llvm::SmallVectorImpl.66" = type { %"class.llvm::SmallVectorTemplateBase.67" }
%"class.llvm::SmallVectorTemplateBase.67" = type { %"class.llvm::SmallVectorTemplateCommon.68" }
%"class.llvm::SmallVectorTemplateCommon.68" = type { %"class.llvm::SmallVectorBase.4" }
%"struct.llvm::SmallVectorStorage.69" = type { [128 x i8] }
%"class.llvm::DenseMap.70" = type <{ ptr, i32, i32, i32, [4 x i8] }>
%"class.llvm::SmallVector.73" = type { %"class.llvm::SmallVectorImpl.74", %"struct.llvm::SmallVectorStorage.77" }
%"class.llvm::SmallVectorImpl.74" = type { %"class.llvm::SmallVectorTemplateBase.75" }
%"class.llvm::SmallVectorTemplateBase.75" = type { %"class.llvm::SmallVectorTemplateCommon.76" }
%"class.llvm::SmallVectorTemplateCommon.76" = type { %"class.llvm::SmallVectorBase.4" }
%"struct.llvm::SmallVectorStorage.77" = type { [128 x i8] }
%"class.std::__cxx11::list.78" = type { %"class.std::__cxx11::_List_base.79" }
%"class.std::__cxx11::_List_base.79" = type { %"struct.std::__cxx11::_List_base<std::__cxx11::basic_string<char>, std::allocator<std::__cxx11::basic_string<char>>>::_List_impl" }
%"struct.std::__cxx11::_List_base<std::__cxx11::basic_string<char>, std::allocator<std::__cxx11::basic_string<char>>>::_List_impl" = type { %"struct.std::__detail::_List_node_header" }
%"struct.std::__detail::_List_node_header" = type { %"struct.std::__detail::_List_node_base", i64 }
%"struct.std::__detail::_List_node_base" = type { ptr, ptr }
%"class.llvm::opt::Arg" = type { %"class.llvm::opt::Option", ptr, %"class.llvm::StringRef", i32, i8, %"class.llvm::SmallVector.83", %"class.std::unique_ptr.85" }
%"class.llvm::SmallVector.83" = type { %"class.llvm::SmallVectorImpl.74", %"struct.llvm::SmallVectorStorage.84" }
%"struct.llvm::SmallVectorStorage.84" = type { [16 x i8] }
%"class.std::unique_ptr.85" = type { %"struct.std::__uniq_ptr_data.86" }
%"struct.std::__uniq_ptr_data.86" = type { %"class.std::__uniq_ptr_impl.87" }
%"class.std::__uniq_ptr_impl.87" = type { %"class.std::tuple.88" }
%"class.std::tuple.88" = type { %"struct.std::_Tuple_impl.89" }
%"struct.std::_Tuple_impl.89" = type { %"struct.std::_Head_base.92" }
%"struct.std::_Head_base.92" = type { ptr }

; Function Attrs: mustprogress nounwind uwtable
define linkonce_odr hidden noundef ptr @_ZN4llvm25SmallVectorTemplateCommonIPKcvE5beginEv(ptr noundef nonnull align 8 dereferenceable(16) %0) #0 comdat align 2 {
  %2 = alloca ptr, align 8
  store ptr %0, ptr %2, align 8
  %3 = load ptr, ptr %2, align 8
  %4 = getelementptr inbounds nuw %"class.llvm::SmallVectorBase.4", ptr %3, i32 0, i32 0
  %5 = load ptr, ptr %4, align 8
  ret ptr %5
}

; Function Attrs: mustprogress nounwind uwtable
define linkonce_odr hidden noundef nonnull align 8 dereferenceable(88) ptr @_ZNK4llvm3opt3Arg10getBaseArgEv(ptr noundef nonnull align 8 dereferenceable(88) %0) #0 comdat align 2 {
  %2 = alloca ptr, align 8
  store ptr %0, ptr %2, align 8
  %3 = load ptr, ptr %2, align 8
  %4 = getelementptr inbounds nuw %"class.llvm::opt::Arg", ptr %3, i32 0, i32 1
  %5 = load ptr, ptr %4, align 8
  %6 = icmp ne ptr %5, null
  br i1 %6, label %7, label %10

7:                                                ; preds = %1
  %8 = getelementptr inbounds nuw %"class.llvm::opt::Arg", ptr %3, i32 0, i32 1
  %9 = load ptr, ptr %8, align 8
  br label %11

10:                                               ; preds = %1
  br label %11

11:                                               ; preds = %10, %7
  %12 = phi ptr [ %9, %7 ], [ %3, %10 ]
  ret ptr %12
}

; Function Attrs: mustprogress nounwind uwtable
define linkonce_odr hidden noundef i64 @_ZNSt11char_traitsIcE6lengthEPKc(ptr noundef %0) #0 comdat align 2 {
  %2 = alloca ptr, align 8
  store ptr %0, ptr %2, align 8
  %3 = load ptr, ptr %2, align 8
  %4 = call i64 @strlen(ptr noundef %3) #4
  ret i64 %4
}

; Function Attrs: mustprogress nounwind uwtable
define linkonce_odr hidden noundef nonnull align 8 dereferenceable(8) ptr @_ZN4llvm25SmallVectorTemplateCommonIPKcvEixEm(ptr noundef nonnull align 8 dereferenceable(16) %0, i64 noundef %1) #0 comdat align 2 {
  %3 = alloca ptr, align 8
  %4 = alloca i64, align 8
  store ptr %0, ptr %3, align 8
  store i64 %1, ptr %4, align 8
  %5 = load ptr, ptr %3, align 8
  %6 = call noundef ptr @_ZN4llvm25SmallVectorTemplateCommonIPKcvE5beginEv(ptr noundef nonnull align 8 dereferenceable(16) %5)
  %7 = load i64, ptr %4, align 8
  %8 = getelementptr inbounds ptr, ptr %6, i64 %7
  ret ptr %8
}

; Function Attrs: mustprogress nounwind uwtable
define linkonce_odr hidden void @_ZNK4llvm3opt3Arg13setOwnsValuesEb(ptr noundef nonnull align 8 dereferenceable(88) %0, i1 noundef zeroext %1) #0 comdat align 2 {
  %3 = alloca ptr, align 8
  %4 = alloca i8, align 1
  store ptr %0, ptr %3, align 8
  %5 = zext i1 %1 to i8
  store i8 %5, ptr %4, align 1
  %6 = load ptr, ptr %3, align 8
  %7 = load i8, ptr %4, align 1
  %8 = trunc i8 %7 to i1
  %9 = zext i1 %8 to i32
  %10 = getelementptr inbounds nuw %"class.llvm::opt::Arg", ptr %6, i32 0, i32 4
  %11 = trunc i32 %9 to i8
  %12 = load i8, ptr %10, align 4
  %13 = and i8 %11, 1
  %14 = shl i8 %13, 2
  %15 = and i8 %12, -5
  %16 = or i8 %15, %14
  store i8 %16, ptr %10, align 4
  ret void
}

; Function Attrs: mustprogress nounwind uwtable
define linkonce_odr hidden noundef zeroext i1 @_ZNK4llvm3opt3Arg13getOwnsValuesEv(ptr noundef nonnull align 8 dereferenceable(88) %0) #0 comdat align 2 {
  %2 = alloca ptr, align 8
  store ptr %0, ptr %2, align 8
  %3 = load ptr, ptr %2, align 8
  %4 = getelementptr inbounds nuw %"class.llvm::opt::Arg", ptr %3, i32 0, i32 4
  %5 = load i8, ptr %4, align 4
  %6 = lshr i8 %5, 2
  %7 = and i8 %6, 1
  %8 = zext i8 %7 to i32
  %9 = icmp ne i32 %8, 0
  ret i1 %9
}

; Function Attrs: mustprogress nounwind uwtable
define linkonce_odr hidden void @_ZNK4llvm3opt3Arg5claimEv(ptr noundef nonnull align 8 dereferenceable(88) %0) #0 comdat align 2 {
  %2 = alloca ptr, align 8
  store ptr %0, ptr %2, align 8
  %3 = load ptr, ptr %2, align 8
  %4 = call noundef nonnull align 8 dereferenceable(88) ptr @_ZNK4llvm3opt3Arg10getBaseArgEv(ptr noundef nonnull align 8 dereferenceable(88) %3)
  %5 = getelementptr inbounds nuw %"class.llvm::opt::Arg", ptr %4, i32 0, i32 4
  %6 = load i8, ptr %5, align 4
  %7 = and i8 %6, -2
  %8 = or i8 %7, 1
  store i8 %8, ptr %5, align 4
  ret void
}

; Function Attrs: mustprogress nounwind uwtable
define linkonce_odr hidden noundef zeroext i1 @_ZNK4llvm3opt3Arg9isClaimedEv(ptr noundef nonnull align 8 dereferenceable(88) %0) #0 comdat align 2 {
  %2 = alloca ptr, align 8
  store ptr %0, ptr %2, align 8
  %3 = load ptr, ptr %2, align 8
  %4 = call noundef nonnull align 8 dereferenceable(88) ptr @_ZNK4llvm3opt3Arg10getBaseArgEv(ptr noundef nonnull align 8 dereferenceable(88) %3)
  %5 = getelementptr inbounds nuw %"class.llvm::opt::Arg", ptr %4, i32 0, i32 4
  %6 = load i8, ptr %5, align 4
  %7 = and i8 %6, 1
  %8 = zext i8 %7 to i32
  %9 = icmp ne i32 %8, 0
  ret i1 %9
}

; Function Attrs: mustprogress nounwind uwtable
define linkonce_odr hidden noundef nonnull align 8 dereferenceable(16) ptr @_ZN4llvm3opt3Arg9getValuesEv(ptr noundef nonnull align 8 dereferenceable(88) %0) #0 comdat align 2 {
  %2 = alloca ptr, align 8
  store ptr %0, ptr %2, align 8
  %3 = load ptr, ptr %2, align 8
  %4 = getelementptr inbounds nuw %"class.llvm::opt::Arg", ptr %3, i32 0, i32 5
  ret ptr %4
}

; Function Attrs: mustprogress nounwind uwtable
define linkonce_odr hidden noundef nonnull align 8 dereferenceable(16) ptr @_ZNK4llvm3opt3Arg9getValuesEv(ptr noundef nonnull align 8 dereferenceable(88) %0) #0 comdat align 2 {
  %2 = alloca ptr, align 8
  store ptr %0, ptr %2, align 8
  %3 = load ptr, ptr %2, align 8
  %4 = getelementptr inbounds nuw %"class.llvm::opt::Arg", ptr %3, i32 0, i32 5
  ret ptr %4
}

; Function Attrs: mustprogress nounwind uwtable
define linkonce_odr hidden void @_ZN4llvm9StringRefC2EPKc(ptr noundef nonnull align 8 dereferenceable(16) %0, ptr noundef %1) unnamed_addr #0 comdat align 2 {
  %3 = alloca ptr, align 8
  %4 = alloca ptr, align 8
  store ptr %0, ptr %3, align 8
  store ptr %1, ptr %4, align 8
  %5 = load ptr, ptr %3, align 8
  %6 = getelementptr inbounds nuw %"class.llvm::StringRef", ptr %5, i32 0, i32 0
  %7 = load ptr, ptr %4, align 8
  store ptr %7, ptr %6, align 8
  %8 = getelementptr inbounds nuw %"class.llvm::StringRef", ptr %5, i32 0, i32 1
  %9 = load ptr, ptr %4, align 8
  %10 = icmp ne ptr %9, null
  br i1 %10, label %11, label %14

11:                                               ; preds = %2
  %12 = load ptr, ptr %4, align 8
  %13 = call noundef i64 @_ZNSt11char_traitsIcE6lengthEPKc(ptr noundef %12)
  br label %15

14:                                               ; preds = %2
  br label %15

15:                                               ; preds = %14, %11
  %16 = phi i64 [ %13, %11 ], [ 0, %14 ]
  store i64 %16, ptr %8, align 8
  ret void
}

; Function Attrs: mustprogress nounwind uwtable
define linkonce_odr hidden noundef ptr @_ZNK4llvm3opt12InputArgList12getArgStringEj(ptr noundef nonnull align 8 dereferenceable(352) %0, i32 noundef %1) unnamed_addr #0 comdat align 2 {
  %3 = alloca ptr, align 8
  %4 = alloca i32, align 4
  store ptr %0, ptr %3, align 8
  store i32 %1, ptr %4, align 4
  %5 = load ptr, ptr %3, align 8
  %6 = getelementptr inbounds nuw %"class.llvm::opt::InputArgList", ptr %5, i32 0, i32 1
  %7 = load i32, ptr %4, align 4
  %8 = zext i32 %7 to i64
  %9 = call noundef nonnull align 8 dereferenceable(8) ptr @_ZN4llvm25SmallVectorTemplateCommonIPKcvEixEm(ptr noundef nonnull align 8 dereferenceable(16) %6, i64 noundef %8)
  %10 = load ptr, ptr %9, align 8
  ret ptr %10
}

; Function Attrs: mustprogress nounwind uwtable
define linkonce_odr hidden noundef nonnull align 8 dereferenceable(16) ptr @_ZNK4llvm3opt3Arg9getOptionEv(ptr noundef nonnull align 8 dereferenceable(88) %0) #0 comdat align 2 {
  %2 = alloca ptr, align 8
  store ptr %0, ptr %2, align 8
  %3 = load ptr, ptr %2, align 8
  %4 = getelementptr inbounds nuw %"class.llvm::opt::Arg", ptr %3, i32 0, i32 0
  ret ptr %4
}

; Function Attrs: mustprogress nounwind uwtable
define linkonce_odr hidden { ptr, i64 } @_ZNK4llvm3opt3Arg11getSpellingEv(ptr noundef nonnull align 8 dereferenceable(88) %0) #0 comdat align 2 {
  %2 = alloca %"class.llvm::StringRef", align 8
  %3 = alloca ptr, align 8
  store ptr %0, ptr %3, align 8
  %4 = load ptr, ptr %3, align 8
  %5 = getelementptr inbounds nuw %"class.llvm::opt::Arg", ptr %4, i32 0, i32 2
  call void @llvm.memcpy.p0.p0.i64(ptr align 8 %2, ptr align 8 %5, i64 16, i1 false)
  %6 = load { ptr, i64 }, ptr %2, align 8
  ret { ptr, i64 } %6
}

; Function Attrs: mustprogress nounwind uwtable
define internal void @_ZL12appendOneArgRN4llvm3opt12InputArgListEPKNS0_3ArgES5_(ptr noundef nonnull align 8 dereferenceable(352) %0, ptr noundef %1, ptr noundef %2) #0 {
  %4 = alloca ptr, align 8
  %5 = alloca ptr, align 8
  %6 = alloca ptr, align 8
  %7 = alloca i32, align 4
  %8 = alloca %"class.llvm::StringRef", align 8
  %9 = alloca ptr, align 8
  %10 = alloca %"class.llvm::opt::Option", align 8
  %11 = alloca %"class.llvm::StringRef", align 8
  store ptr %0, ptr %4, align 8
  store ptr %1, ptr %5, align 8
  store ptr %2, ptr %6, align 8
  %12 = load ptr, ptr %4, align 8
  %13 = load ptr, ptr %5, align 8
  %14 = call { ptr, i64 } @_ZNK4llvm3opt3Arg11getSpellingEv(ptr noundef nonnull align 8 dereferenceable(88) %13)
  %15 = getelementptr inbounds nuw { ptr, i64 }, ptr %8, i32 0, i32 0
  %16 = extractvalue { ptr, i64 } %14, 0
  store ptr %16, ptr %15, align 8
  %17 = getelementptr inbounds nuw { ptr, i64 }, ptr %8, i32 0, i32 1
  %18 = extractvalue { ptr, i64 } %14, 1
  store i64 %18, ptr %17, align 8
  %19 = getelementptr inbounds nuw { ptr, i64 }, ptr %8, i32 0, i32 0
  %20 = load ptr, ptr %19, align 8
  %21 = getelementptr inbounds nuw { ptr, i64 }, ptr %8, i32 0, i32 1
  %22 = load i64, ptr %21, align 8
  %23 = call noundef i32 @_ZNK4llvm3opt12InputArgList9MakeIndexENS_9StringRefE(ptr noundef nonnull align 8 dereferenceable(352) %12, ptr %20, i64 %22)
  store i32 %23, ptr %7, align 4
  %24 = call noalias noundef nonnull ptr @_Znwm(i64 noundef 88) #17
  %25 = load ptr, ptr %5, align 8
  %26 = call noundef nonnull align 8 dereferenceable(16) ptr @_ZNK4llvm3opt3Arg9getOptionEv(ptr noundef nonnull align 8 dereferenceable(88) %25)
  call void @llvm.memcpy.p0.p0.i64(ptr align 8 %10, ptr align 8 %26, i64 16, i1 false)
  %27 = load ptr, ptr %4, align 8
  %28 = load i32, ptr %7, align 4
  %29 = call noundef ptr @_ZNK4llvm3opt12InputArgList12getArgStringEj(ptr noundef nonnull align 8 dereferenceable(352) %27, i32 noundef %28)
  call void @_ZN4llvm9StringRefC2EPKc(ptr noundef nonnull align 8 dereferenceable(16) %11, ptr noundef %29)
  %30 = load i32, ptr %7, align 4
  %31 = load ptr, ptr %6, align 8
  %32 = getelementptr inbounds nuw { ptr, ptr }, ptr %10, i32 0, i32 0
  %33 = load ptr, ptr %32, align 8
  %34 = getelementptr inbounds nuw { ptr, ptr }, ptr %10, i32 0, i32 1
  %35 = load ptr, ptr %34, align 8
  %36 = getelementptr inbounds nuw { ptr, i64 }, ptr %11, i32 0, i32 0
  %37 = load ptr, ptr %36, align 8
  %38 = getelementptr inbounds nuw { ptr, i64 }, ptr %11, i32 0, i32 1
  %39 = load i64, ptr %38, align 8
  call void @_ZN4llvm3opt3ArgC1ENS0_6OptionENS_9StringRefEjPKS1_(ptr noundef nonnull align 8 dereferenceable(88) %24, ptr %33, ptr %35, ptr %37, i64 %39, i32 noundef %30, ptr noundef %31)
  store ptr %24, ptr %9, align 8
  %40 = load ptr, ptr %5, align 8
  %41 = call noundef nonnull align 8 dereferenceable(16) ptr @_ZNK4llvm3opt3Arg9getValuesEv(ptr noundef nonnull align 8 dereferenceable(88) %40)
  %42 = load ptr, ptr %9, align 8
  %43 = call noundef nonnull align 8 dereferenceable(16) ptr @_ZN4llvm3opt3Arg9getValuesEv(ptr noundef nonnull align 8 dereferenceable(88) %42)
  %44 = call noundef nonnull align 8 dereferenceable(16) ptr @_ZN4llvm15SmallVectorImplIPKcEaSERKS3_(ptr noundef nonnull align 8 dereferenceable(16) %43, ptr noundef nonnull align 8 dereferenceable(16) %41)
  %45 = load ptr, ptr %5, align 8
  %46 = call noundef zeroext i1 @_ZNK4llvm3opt3Arg9isClaimedEv(ptr noundef nonnull align 8 dereferenceable(88) %45)
  br i1 %46, label %47, label %49

47:                                               ; preds = %3
  %48 = load ptr, ptr %9, align 8
  call void @_ZNK4llvm3opt3Arg5claimEv(ptr noundef nonnull align 8 dereferenceable(88) %48)
  br label %49

49:                                               ; preds = %47, %3
  %50 = load ptr, ptr %9, align 8
  %51 = load ptr, ptr %5, align 8
  %52 = call noundef zeroext i1 @_ZNK4llvm3opt3Arg13getOwnsValuesEv(ptr noundef nonnull align 8 dereferenceable(88) %51)
  call void @_ZNK4llvm3opt3Arg13setOwnsValuesEb(ptr noundef nonnull align 8 dereferenceable(88) %50, i1 noundef zeroext %52)
  %53 = load ptr, ptr %5, align 8
  call void @_ZNK4llvm3opt3Arg13setOwnsValuesEb(ptr noundef nonnull align 8 dereferenceable(88) %53, i1 noundef zeroext false)
  %54 = load ptr, ptr %4, align 8
  %55 = load ptr, ptr %9, align 8
  call void @_ZN4llvm3opt7ArgList6appendEPNS0_3ArgE(ptr noundef nonnull align 8 dereferenceable(176) %54, ptr noundef %55)
  ret void
}