; Function Attrs: mustprogress nounwind uwtable
define internal fastcc void @_ZL12appendOneArgRN4llvm3opt12InputArgListEPKNS0_3ArgES5_(ptr noundef nonnull align 8 dereferenceable(352) %0, ptr noundef %1, ptr noundef %2) unnamed_addr #0 {
  %4 = getelementptr inbounds nuw i8, ptr %1, i64 24
  %.sroa.0.0.copyload.i = load ptr, ptr %4, align 8
  %.sroa.2.0..sroa_idx.i = getelementptr inbounds i8, ptr %1, i64 32
  %.sroa.2.0.copyload.i = load i64, ptr %.sroa.2.0..sroa_idx.i, align 8
  %5 = tail call noundef i32 @_ZNK4llvm3opt12InputArgList9MakeIndexENS_9StringRefE(ptr noundef nonnull align 8 dereferenceable(352) %0, ptr %.sroa.0.0.copyload.i, i64 %.sroa.2.0.copyload.i) #30
  %6 = tail call noalias noundef nonnull dereferenceable(88) ptr @_Znwm(i64 noundef 88) #34
  %.sroa.0.0.copyload = load ptr, ptr %1, align 8
  %.sroa.2.0..sroa_idx = getelementptr inbounds i8, ptr %1, i64 8
  %.sroa.2.0.copyload = load ptr, ptr %.sroa.2.0..sroa_idx, align 8
  %7 = getelementptr inbounds nuw i8, ptr %0, i64 176
  %8 = zext i32 %5 to i64
  %9 = load ptr, ptr %7, align 8
  %10 = getelementptr inbounds ptr, ptr %9, i64 %8
  %11 = load ptr, ptr %10, align 8
  %.not.i = icmp eq ptr %11, null
  br i1 %.not.i, label %_ZN4llvm9StringRefC2EPKc.exit, label %12

12:                                               ; preds = %3
  %13 = tail call noundef i64 @strlen(ptr noundef nonnull dereferenceable(1) %11) #30
  br label %_ZN4llvm9StringRefC2EPKc.exit

_ZN4llvm9StringRefC2EPKc.exit:                    ; preds = %3, %12
  %14 = phi i64 [ %13, %12 ], [ 0, %3 ]
  tail call void @_ZN4llvm3opt3ArgC1ENS0_6OptionENS_9StringRefEjPKS1_(ptr noundef nonnull align 8 dereferenceable(88) %6, ptr %.sroa.0.0.copyload, ptr %.sroa.2.0.copyload, ptr %11, i64 %14, i32 noundef %5, ptr noundef %2) #30
  %15 = getelementptr inbounds nuw i8, ptr %1, i64 48
  %16 = getelementptr inbounds nuw i8, ptr %6, i64 48
  %17 = tail call noundef nonnull align 8 dereferenceable(16) ptr @_ZN4llvm15SmallVectorImplIPKcEaSERKS3_(ptr noundef nonnull align 8 dereferenceable(16) %16, ptr noundef nonnull align 8 dereferenceable(16) %15)
  %18 = getelementptr inbounds nuw i8, ptr %1, i64 16
  %19 = load ptr, ptr %18, align 8
  %.not.i.i = icmp eq ptr %19, null
  %spec.select.i.i = select i1 %.not.i.i, ptr %1, ptr %19
  %20 = getelementptr inbounds nuw i8, ptr %spec.select.i.i, i64 44
  %21 = load i8, ptr %20, align 4
  %22 = and i8 %21, 1
  %.not = icmp eq i8 %22, 0
  br i1 %.not, label %29, label %23

23:                                               ; preds = %_ZN4llvm9StringRefC2EPKc.exit
  %24 = getelementptr inbounds nuw i8, ptr %6, i64 16
  %25 = load ptr, ptr %24, align 8
  %.not.i.i17 = icmp eq ptr %25, null
  %spec.select.i.i18 = select i1 %.not.i.i17, ptr %6, ptr %25
  %26 = getelementptr inbounds nuw i8, ptr %spec.select.i.i18, i64 44
  %27 = load i8, ptr %26, align 4
  %28 = or i8 %27, 1
  store i8 %28, ptr %26, align 4
  br label %29

29:                                               ; preds = %23, %_ZN4llvm9StringRefC2EPKc.exit
  %30 = getelementptr inbounds nuw i8, ptr %1, i64 44
  %31 = load i8, ptr %30, align 4
  %32 = and i8 %31, 4
  %33 = getelementptr inbounds nuw i8, ptr %6, i64 44
  %34 = load i8, ptr %33, align 4
  %35 = and i8 %34, -5
  %36 = or disjoint i8 %35, %32
  store i8 %36, ptr %33, align 4
  %37 = and i8 %31, -5
  store i8 %37, ptr %30, align 4
  tail call void @_ZN4llvm3opt7ArgList6appendEPNS0_3ArgE(ptr noundef nonnull align 8 dereferenceable(176) %0, ptr noundef nonnull %6) #30
  ret void
}